; Function Attrs: mustprogress nounwind uwtable
define hidden void @_ZN11OpenImageIO6v3_1_09RLAOutputD2Ev(ptr noundef nonnull align 8 dereferenceable(1032) %0) unnamed_addr #6 align 2 personality ptr @__gxx_personality_v0 {
  %2 = invoke noundef zeroext i1 @_ZN11OpenImageIO6v3_1_09RLAOutput5closeEv(ptr noundef nonnull align 8 dereferenceable(1032) %0)
          to label %3 unwind label %36

3:                                                ; preds = %1
  %4 = getelementptr inbounds nuw i8, ptr %0, i64 1000
  %5 = load ptr, ptr %4, align 8, !tbaa !12
  %.not.i.i.i = icmp eq ptr %5, null
  br i1 %.not.i.i.i, label %_ZNSt6vectorIhSaIhEED2Ev.exit, label %6

6:                                                ; preds = %3
  %7 = getelementptr inbounds nuw i8, ptr %0, i64 1016
  %8 = load ptr, ptr %7, align 8, !tbaa !15
  %9 = ptrtoint ptr %8 to i64
  %10 = ptrtoint ptr %5 to i64
  %11 = sub i64 %9, %10
  tail call void @_ZdlPvm(ptr noundef nonnull %5, i64 noundef %11) #28
  br label %_ZNSt6vectorIhSaIhEED2Ev.exit

_ZNSt6vectorIhSaIhEED2Ev.exit:                    ; preds = %3, %6
  %12 = getelementptr inbounds nuw i8, ptr %0, i64 976
  %13 = load ptr, ptr %12, align 8, !tbaa !12
  %.not.i.i.i1 = icmp eq ptr %13, null
  br i1 %.not.i.i.i1, label %_ZNSt6vectorIhSaIhEED2Ev.exit2, label %14

14:                                               ; preds = %_ZNSt6vectorIhSaIhEED2Ev.exit
  %15 = getelementptr inbounds nuw i8, ptr %0, i64 992
  %16 = load ptr, ptr %15, align 8, !tbaa !15
  %17 = ptrtoint ptr %16 to i64
  %18 = ptrtoint ptr %13 to i64
  %19 = sub i64 %17, %18
  tail call void @_ZdlPvm(ptr noundef nonnull %13, i64 noundef %19) #28
  br label %_ZNSt6vectorIhSaIhEED2Ev.exit2

_ZNSt6vectorIhSaIhEED2Ev.exit2:                   ; preds = %_ZNSt6vectorIhSaIhEED2Ev.exit, %14
  %20 = getelementptr inbounds nuw i8, ptr %0, i64 952
  %21 = load ptr, ptr %20, align 8, !tbaa !6
  %.not.i.i.i3 = icmp eq ptr %21, null
  br i1 %.not.i.i.i3, label %_ZNSt6vectorIjSaIjEED2Ev.exit, label %22

22:                                               ; preds = %_ZNSt6vectorIhSaIhEED2Ev.exit2
  %23 = getelementptr inbounds nuw i8, ptr %0, i64 968
  %24 = load ptr, ptr %23, align 8, !tbaa !16
  %25 = ptrtoint ptr %24 to i64
  %26 = ptrtoint ptr %21 to i64
  %27 = sub i64 %25, %26
  tail call void @_ZdlPvm(ptr noundef nonnull %21, i64 noundef %27) #28
  br label %_ZNSt6vectorIjSaIjEED2Ev.exit

_ZNSt6vectorIjSaIjEED2Ev.exit:                    ; preds = %_ZNSt6vectorIhSaIhEED2Ev.exit2, %22
  %28 = getelementptr inbounds nuw i8, ptr %0, i64 184
  %29 = load ptr, ptr %28, align 8, !tbaa !12
  %.not.i.i.i4 = icmp eq ptr %29, null
  br i1 %.not.i.i.i4, label %_ZNSt6vectorIhSaIhEED2Ev.exit5, label %30

30:                                               ; preds = %_ZNSt6vectorIjSaIjEED2Ev.exit
  %31 = getelementptr inbounds nuw i8, ptr %0, i64 200
  %32 = load ptr, ptr %31, align 8, !tbaa !15
  %33 = ptrtoint ptr %32 to i64
  %34 = ptrtoint ptr %29 to i64
  %35 = sub i64 %33, %34
  tail call void @_ZdlPvm(ptr noundef nonnull %29, i64 noundef %35) #28
  br label %_ZNSt6vectorIhSaIhEED2Ev.exit5

_ZNSt6vectorIhSaIhEED2Ev.exit5:                   ; preds = %_ZNSt6vectorIjSaIjEED2Ev.exit, %30
  tail call void @_ZN11OpenImageIO6v3_1_011ImageOutputD2Ev(ptr noundef nonnull align 8 dereferenceable(184) %0) #27
  ret void

36:                                               ; preds = %1
  %37 = landingpad { ptr, i32 }
          catch ptr null
  %38 = extractvalue { ptr, i32 } %37, 0
  tail call void @__clang_call_terminate(ptr %38) #29
  unreachable
}